
test_1_cpu_bound:     file format elf32-littlearm


Disassembly of section .plt:

00008420 <.plt>:
    8420:	e52de004 	.word	0xe52de004
    8424:	e59fe004 	.word	0xe59fe004
    8428:	e08fe00e 	.word	0xe08fe00e
    842c:	e5bef008 	.word	0xe5bef008
    8430:	00002b84 	.word	0x00002b84
    8434:	e28fc600 	.word	0xe28fc600
    8438:	e28cca02 	.word	0xe28cca02
    843c:	e5bcfb84 	.word	0xe5bcfb84
    8440:	e28fc600 	.word	0xe28fc600
    8444:	e28cca02 	.word	0xe28cca02
    8448:	e5bcfb7c 	.word	0xe5bcfb7c
    844c:	e28fc600 	.word	0xe28fc600
    8450:	e28cca02 	.word	0xe28cca02
    8454:	e5bcfb74 	.word	0xe5bcfb74
    8458:	e28fc600 	.word	0xe28fc600
    845c:	e28cca02 	.word	0xe28cca02
    8460:	e5bcfb6c 	.word	0xe5bcfb6c
    8464:	e28fc600 	.word	0xe28fc600
    8468:	e28cca02 	.word	0xe28cca02
    846c:	e5bcfb64 	.word	0xe5bcfb64
    8470:	e28fc600 	.word	0xe28fc600
    8474:	e28cca02 	.word	0xe28cca02
    8478:	e5bcfb5c 	.word	0xe5bcfb5c
    847c:	e28fc600 	.word	0xe28fc600
    8480:	e28cca02 	.word	0xe28cca02
    8484:	e5bcfb54 	.word	0xe5bcfb54
    8488:	e28fc600 	.word	0xe28fc600
    848c:	e28cca02 	.word	0xe28cca02
    8490:	e5bcfb4c 	.word	0xe5bcfb4c
    8494:	e28fc600 	.word	0xe28fc600
    8498:	e28cca02 	.word	0xe28cca02
    849c:	e5bcfb44 	.word	0xe5bcfb44
    84a0:	e28fc600 	.word	0xe28fc600
    84a4:	e28cca02 	.word	0xe28cca02
    84a8:	e5bcfb3c 	.word	0xe5bcfb3c
    84ac:	e28fc600 	.word	0xe28fc600
    84b0:	e28cca02 	.word	0xe28cca02
    84b4:	e5bcfb34 	.word	0xe5bcfb34
    84b8:	e28fc600 	.word	0xe28fc600
    84bc:	e28cca02 	.word	0xe28cca02
    84c0:	e5bcfb2c 	.word	0xe5bcfb2c
    84c4:	e28fc600 	.word	0xe28fc600
    84c8:	e28cca02 	.word	0xe28cca02
    84cc:	e5bcfb24 	.word	0xe5bcfb24
    84d0:	e28fc600 	.word	0xe28fc600
    84d4:	e28cca02 	.word	0xe28cca02
    84d8:	e5bcfb1c 	.word	0xe5bcfb1c
    84dc:	e28fc600 	.word	0xe28fc600
    84e0:	e28cca02 	.word	0xe28cca02
    84e4:	e5bcfb14 	.word	0xe5bcfb14
    84e8:	e28fc600 	.word	0xe28fc600
    84ec:	e28cca02 	.word	0xe28cca02
    84f0:	e5bcfb0c 	.word	0xe5bcfb0c

Disassembly of section .text:

000084f8 <__atexit_handler_wrapper>:
    84f8:	e3500000 	cmp	r0, #0
    84fc:	e92d4008 	push	{r3, lr}
    8500:	08bd8008 	popeq	{r3, pc}
    8504:	e12fff30 	blx	r0
    8508:	e8bd8008 	pop	{r3, pc}

0000850c <_start>:
    850c:	e59fc05c 	ldr	ip, [pc, #92]	; 8570 <_start+0x64>
    8510:	e92d4800 	push	{fp, lr}
    8514:	e59f3058 	ldr	r3, [pc, #88]	; 8574 <_start+0x68>
    8518:	e28db004 	add	fp, sp, #4
    851c:	e24dd010 	sub	sp, sp, #16
    8520:	e08fc00c 	add	ip, pc, ip
    8524:	e79c3003 	ldr	r3, [ip, r3]
    8528:	e50b3014 	str	r3, [fp, #-20]
    852c:	e59f3044 	ldr	r3, [pc, #68]	; 8578 <_start+0x6c>
    8530:	e28b0004 	add	r0, fp, #4
    8534:	e79c3003 	ldr	r3, [ip, r3]
    8538:	e50b3010 	str	r3, [fp, #-16]
    853c:	e59f3038 	ldr	r3, [pc, #56]	; 857c <_start+0x70>
    8540:	e3a01000 	mov	r1, #0
    8544:	e79c3003 	ldr	r3, [ip, r3]
    8548:	e50b300c 	str	r3, [fp, #-12]
    854c:	e59f302c 	ldr	r3, [pc, #44]	; 8580 <_start+0x74>
    8550:	e79c3003 	ldr	r3, [ip, r3]
    8554:	e50b3008 	str	r3, [fp, #-8]
    8558:	e59f3024 	ldr	r3, [pc, #36]	; 8584 <_start+0x78>
    855c:	e79c2003 	ldr	r2, [ip, r3]
    8560:	e24b3014 	sub	r3, fp, #20
    8564:	ebffffb2 	bl	8434 <__atexit_handler_wrapper-0xc4>
    8568:	e24bd004 	sub	sp, fp, #4
    856c:	e8bd8800 	pop	{fp, pc}
    8570:	00002a8c 	.word	0x00002a8c
    8574:	ffffffec 	.word	0xffffffec
    8578:	fffffff0 	.word	0xfffffff0
    857c:	fffffff4 	.word	0xfffffff4
    8580:	fffffff8 	.word	0xfffffff8
    8584:	fffffffc 	.word	0xfffffffc

00008588 <atexit>:
    8588:	e1a01000 	mov	r1, r0
    858c:	e59f200c 	ldr	r2, [pc, #12]	; 85a0 <atexit+0x18>
    8590:	e59f000c 	ldr	r0, [pc, #12]	; 85a4 <atexit+0x1c>
    8594:	e08f2002 	add	r2, pc, r2
    8598:	e08f0000 	add	r0, pc, r0
    859c:	eaffffa7 	b	8440 <__atexit_handler_wrapper-0xb8>
    85a0:	00002a64 	.word	0x00002a64
    85a4:	ffffff58 	.word	0xffffff58

000085a8 <setCurrentThreadAffinityMask>:
    85a8:	e24dd010 	sub	sp, sp, #16
    85ac:	e92d4800 	push	{fp, lr}
    85b0:	e28db004 	add	fp, sp, #4
    85b4:	e24dd010 	sub	sp, sp, #16
    85b8:	e28bc004 	add	ip, fp, #4
    85bc:	e88c000f 	stm	ip, {r0, r1, r2, r3}
    85c0:	ebffffa1 	bl	844c <__atexit_handler_wrapper-0xac>
    85c4:	e50b0008 	str	r0, [fp, #-8]
    85c8:	e3a000f1 	mov	r0, #241	; 0xf1
    85cc:	e51b1008 	ldr	r1, [fp, #-8]
    85d0:	e3a02080 	mov	r2, #128	; 0x80
    85d4:	e28b3004 	add	r3, fp, #4
    85d8:	ebffff9e 	bl	8458 <__atexit_handler_wrapper-0xa0>
    85dc:	e50b000c 	str	r0, [fp, #-12]
    85e0:	e51b300c 	ldr	r3, [fp, #-12]
    85e4:	e3530000 	cmp	r3, #0
    85e8:	0a000003 	beq	85fc <setCurrentThreadAffinityMask+0x54>
    85ec:	ebffff9c 	bl	8464 <__atexit_handler_wrapper-0x94>
    85f0:	e1a03000 	mov	r3, r0
    85f4:	e5933000 	ldr	r3, [r3]
    85f8:	e50b3010 	str	r3, [fp, #-16]
    85fc:	e24bd004 	sub	sp, fp, #4
    8600:	e8bd4800 	pop	{fp, lr}
    8604:	e28dd010 	add	sp, sp, #16
    8608:	e12fff1e 	bx	lr

0000860c <main>:
    860c:	e92d4800 	push	{fp, lr}
    8610:	e28db004 	add	fp, sp, #4
    8614:	e24ddf4e 	sub	sp, sp, #312	; 0x138
    8618:	e50b00c8 	str	r0, [fp, #-200]	; 0xc8
    861c:	e50b10cc 	str	r1, [fp, #-204]	; 0xcc
    8620:	e3a03000 	mov	r3, #0
    8624:	e50b3018 	str	r3, [fp, #-24]
    8628:	e3a03000 	mov	r3, #0
    862c:	e50b3014 	str	r3, [fp, #-20]
    8630:	e51b30c8 	ldr	r3, [fp, #-200]	; 0xc8
    8634:	e3530001 	cmp	r3, #1
    8638:	ca000005 	bgt	8654 <main+0x48>
    863c:	e59f3294 	ldr	r3, [pc, #660]	; 88d8 <main+0x2cc>
    8640:	e08f3003 	add	r3, pc, r3
    8644:	e1a00003 	mov	r0, r3
    8648:	ebffff88 	bl	8470 <__atexit_handler_wrapper-0x88>
    864c:	e3a00000 	mov	r0, #0
    8650:	ebffff89 	bl	847c <__atexit_handler_wrapper-0x7c>
    8654:	e51b30cc 	ldr	r3, [fp, #-204]	; 0xcc
    8658:	e2833004 	add	r3, r3, #4
    865c:	e5932000 	ldr	r2, [r3]
    8660:	e24b30c0 	sub	r3, fp, #192	; 0xc0
    8664:	e1a00002 	mov	r0, r2
    8668:	e1a01003 	mov	r1, r3
    866c:	e3a0200a 	mov	r2, #10
    8670:	ebffff84 	bl	8488 <__atexit_handler_wrapper-0x70>
    8674:	e50b001c 	str	r0, [fp, #-28]
    8678:	e59f325c 	ldr	r3, [pc, #604]	; 88dc <main+0x2d0>
    867c:	e08f3003 	add	r3, pc, r3
    8680:	e1a00003 	mov	r0, r3
    8684:	e3a01002 	mov	r1, #2
    8688:	ebffff81 	bl	8494 <__atexit_handler_wrapper-0x64>
    868c:	e50b0020 	str	r0, [fp, #-32]
    8690:	e51b3020 	ldr	r3, [fp, #-32]
    8694:	e3730001 	cmn	r3, #1
    8698:	1a000005 	bne	86b4 <main+0xa8>
    869c:	e59f323c 	ldr	r3, [pc, #572]	; 88e0 <main+0x2d4>
    86a0:	e08f3003 	add	r3, pc, r3
    86a4:	e1a00003 	mov	r0, r3
    86a8:	ebffff70 	bl	8470 <__atexit_handler_wrapper-0x88>
    86ac:	e3a00000 	mov	r0, #0
    86b0:	ebffff71 	bl	847c <__atexit_handler_wrapper-0x7c>
    86b4:	e24b30b8 	sub	r3, fp, #184	; 0xb8
    86b8:	e51b0020 	ldr	r0, [fp, #-32]
    86bc:	e3a01004 	mov	r1, #4
    86c0:	e1a02003 	mov	r2, r3
    86c4:	ebffff75 	bl	84a0 <__atexit_handler_wrapper-0x58>
    86c8:	e51b0020 	ldr	r0, [fp, #-32]
    86cc:	ebffff76 	bl	84ac <__atexit_handler_wrapper-0x4c>
    86d0:	ebffff78 	bl	84b8 <__atexit_handler_wrapper-0x40>
    86d4:	e1a03000 	mov	r3, r0
    86d8:	e50b3024 	str	r3, [fp, #-36]	; 0x24
    86dc:	e51b3024 	ldr	r3, [fp, #-36]	; 0x24
    86e0:	e3530000 	cmp	r3, #0
    86e4:	0a00003a 	beq	87d4 <main+0x1c8>
    86e8:	e3a03000 	mov	r3, #0
    86ec:	e50b3010 	str	r3, [fp, #-16]
    86f0:	ea000032 	b	87c0 <main+0x1b4>
    86f4:	ebffff72 	bl	84c4 <__atexit_handler_wrapper-0x34>
    86f8:	e1a03000 	mov	r3, r0
    86fc:	e50b3028 	str	r3, [fp, #-40]	; 0x28
    8700:	e3a03000 	mov	r3, #0
    8704:	e50b3008 	str	r3, [fp, #-8]
    8708:	ea00000f 	b	874c <main+0x140>
    870c:	e3a03000 	mov	r3, #0
    8710:	e50b300c 	str	r3, [fp, #-12]
    8714:	ea000005 	b	8730 <main+0x124>
    8718:	e51b3014 	ldr	r3, [fp, #-20]
    871c:	e2833001 	add	r3, r3, #1
    8720:	e50b3014 	str	r3, [fp, #-20]
    8724:	e51b300c 	ldr	r3, [fp, #-12]
    8728:	e2833001 	add	r3, r3, #1
    872c:	e50b300c 	str	r3, [fp, #-12]
    8730:	e51b200c 	ldr	r2, [fp, #-12]
    8734:	e59f31a8 	ldr	r3, [pc, #424]	; 88e4 <main+0x2d8>
    8738:	e1520003 	cmp	r2, r3
    873c:	dafffff5 	ble	8718 <main+0x10c>
    8740:	e51b3008 	ldr	r3, [fp, #-8]
    8744:	e2833001 	add	r3, r3, #1
    8748:	e50b3008 	str	r3, [fp, #-8]
    874c:	e51b3008 	ldr	r3, [fp, #-8]
    8750:	e3530063 	cmp	r3, #99	; 0x63
    8754:	daffffec 	ble	870c <main+0x100>
    8758:	ebffff59 	bl	84c4 <__atexit_handler_wrapper-0x34>
    875c:	e1a03000 	mov	r3, r0
    8760:	e50b302c 	str	r3, [fp, #-44]	; 0x2c
    8764:	e51b202c 	ldr	r2, [fp, #-44]	; 0x2c
    8768:	e51b3028 	ldr	r3, [fp, #-40]	; 0x28
    876c:	e0633002 	rsb	r3, r3, r2
    8770:	e1a00003 	mov	r0, r3
    8774:	eb00010d 	bl	8bb0 <__aeabi_ui2d>
    8778:	e1a02000 	mov	r2, r0
    877c:	e1a03001 	mov	r3, r1
    8780:	e1a00002 	mov	r0, r2
    8784:	e1a01003 	mov	r1, r3
    8788:	e28f3d05 	add	r3, pc, #320	; 0x140
    878c:	e1c320d0 	ldrd	r2, [r3]
    8790:	eb0001e1 	bl	8f1c <__aeabi_ddiv>
    8794:	e1a02000 	mov	r2, r0
    8798:	e1a03001 	mov	r3, r1
    879c:	e14b23f4 	strd	r2, [fp, #-52]	; 0xffffffcc
    87a0:	e59f3140 	ldr	r3, [pc, #320]	; 88e8 <main+0x2dc>
    87a4:	e08f3003 	add	r3, pc, r3
    87a8:	e1a00003 	mov	r0, r3
    87ac:	e14b23d4 	ldrd	r2, [fp, #-52]	; 0xffffffcc
    87b0:	ebffff46 	bl	84d0 <__atexit_handler_wrapper-0x28>
    87b4:	e51b3010 	ldr	r3, [fp, #-16]
    87b8:	e2833001 	add	r3, r3, #1
    87bc:	e50b3010 	str	r3, [fp, #-16]
    87c0:	e51b2010 	ldr	r2, [fp, #-16]
    87c4:	e51b301c 	ldr	r3, [fp, #-28]
    87c8:	e1520003 	cmp	r2, r3
    87cc:	baffffc8 	blt	86f4 <main+0xe8>
    87d0:	ea000023 	b	8864 <main+0x258>
    87d4:	e24b30b4 	sub	r3, fp, #180	; 0xb4
    87d8:	e1a02003 	mov	r2, r3
    87dc:	e3a03080 	mov	r3, #128	; 0x80
    87e0:	e1a00002 	mov	r0, r2
    87e4:	e3a01000 	mov	r1, #0
    87e8:	e1a02003 	mov	r2, r3
    87ec:	ebffff3a 	bl	84dc <__atexit_handler_wrapper-0x1c>
    87f0:	e51b3018 	ldr	r3, [fp, #-24]
    87f4:	e1a032a3 	lsr	r3, r3, #5
    87f8:	e3e020af 	mvn	r2, #175	; 0xaf
    87fc:	e1a01103 	lsl	r1, r3, #2
    8800:	e24b0004 	sub	r0, fp, #4
    8804:	e0801001 	add	r1, r0, r1
    8808:	e0812002 	add	r2, r1, r2
    880c:	e5921000 	ldr	r1, [r2]
    8810:	e51b2018 	ldr	r2, [fp, #-24]
    8814:	e202201f 	and	r2, r2, #31
    8818:	e3a00001 	mov	r0, #1
    881c:	e1a02210 	lsl	r2, r0, r2
    8820:	e1812002 	orr	r2, r1, r2
    8824:	e3e010af 	mvn	r1, #175	; 0xaf
    8828:	e1a03103 	lsl	r3, r3, #2
    882c:	e24b0004 	sub	r0, fp, #4
    8830:	e0803003 	add	r3, r0, r3
    8834:	e0833001 	add	r3, r3, r1
    8838:	e5832000 	str	r2, [r3]
    883c:	e1a0100d 	mov	r1, sp
    8840:	e24b20a4 	sub	r2, fp, #164	; 0xa4
    8844:	e3a03070 	mov	r3, #112	; 0x70
    8848:	e1a00001 	mov	r0, r1
    884c:	e1a01002 	mov	r1, r2
    8850:	e1a02003 	mov	r2, r3
    8854:	ebffff23 	bl	84e8 <__atexit_handler_wrapper-0x10>
    8858:	e24b30b4 	sub	r3, fp, #180	; 0xb4
    885c:	e893000f 	ldm	r3, {r0, r1, r2, r3}
    8860:	ebffff50 	bl	85a8 <setCurrentThreadAffinityMask>
    8864:	e59f3080 	ldr	r3, [pc, #128]	; 88ec <main+0x2e0>
    8868:	e08f3003 	add	r3, pc, r3
    886c:	e1a00003 	mov	r0, r3
    8870:	e3a01002 	mov	r1, #2
    8874:	ebffff06 	bl	8494 <__atexit_handler_wrapper-0x64>
    8878:	e50b0020 	str	r0, [fp, #-32]
    887c:	e51b3020 	ldr	r3, [fp, #-32]
    8880:	e3730001 	cmn	r3, #1
    8884:	1a000005 	bne	88a0 <main+0x294>
    8888:	e59f3060 	ldr	r3, [pc, #96]	; 88f0 <main+0x2e4>
    888c:	e08f3003 	add	r3, pc, r3
    8890:	e1a00003 	mov	r0, r3
    8894:	ebfffef5 	bl	8470 <__atexit_handler_wrapper-0x88>
    8898:	e3a00000 	mov	r0, #0
    889c:	ebfffef6 	bl	847c <__atexit_handler_wrapper-0x7c>
    88a0:	e24b30bc 	sub	r3, fp, #188	; 0xbc
    88a4:	e51b0020 	ldr	r0, [fp, #-32]
    88a8:	e3a01004 	mov	r1, #4
    88ac:	e1a02003 	mov	r2, r3
    88b0:	ebfffefa 	bl	84a0 <__atexit_handler_wrapper-0x58>
    88b4:	e51b0020 	ldr	r0, [fp, #-32]
    88b8:	ebfffefb 	bl	84ac <__atexit_handler_wrapper-0x4c>
    88bc:	e3a03000 	mov	r3, #0
    88c0:	e1a00003 	mov	r0, r3
    88c4:	e24bd004 	sub	sp, fp, #4
    88c8:	e8bd8800 	pop	{fp, pc}
    88cc:	e1a00000 	nop			; (mov r0, r0)
    88d0:	00000000 	.word	0x00000000
    88d4:	412e8480 	.word	0x412e8480
    88d8:	00000af0 	.word	0x00000af0
    88dc:	00000ad8 	.word	0x00000ad8
    88e0:	00000acc 	.word	0x00000acc
    88e4:	0001869f 	.word	0x0001869f
    88e8:	000009e8 	.word	0x000009e8
    88ec:	000008ec 	.word	0x000008ec
    88f0:	000008e0 	.word	0x000008e0
    88f4:	e1a00000 	nop			; (mov r0, r0)

000088f8 <__aeabi_drsub>:
    88f8:	e2211102 	eor	r1, r1, #-2147483648	; 0x80000000
    88fc:	ea000000 	b	8904 <__adddf3>

00008900 <__aeabi_dsub>:
    8900:	e2233102 	eor	r3, r3, #-2147483648	; 0x80000000

00008904 <__adddf3>:
    8904:	e92d4030 	push	{r4, r5, lr}
    8908:	e1a04081 	lsl	r4, r1, #1
    890c:	e1a05083 	lsl	r5, r3, #1
    8910:	e1340005 	teq	r4, r5
    8914:	01300002 	teqeq	r0, r2
    8918:	1194c000 	orrsne	ip, r4, r0
    891c:	1195c002 	orrsne	ip, r5, r2
    8920:	11f0cac4 	mvnsne	ip, r4, asr #21
    8924:	11f0cac5 	mvnsne	ip, r5, asr #21
    8928:	0a000079 	beq	8b14 <__adddf3+0x210>
    892c:	e1a04aa4 	lsr	r4, r4, #21
    8930:	e0745aa5 	rsbs	r5, r4, r5, lsr #21
    8934:	b2655000 	rsblt	r5, r5, #0
    8938:	da000006 	ble	8958 <__adddf3+0x54>
    893c:	e0844005 	add	r4, r4, r5
    8940:	e0202002 	eor	r2, r0, r2
    8944:	e0213003 	eor	r3, r1, r3
    8948:	e0220000 	eor	r0, r2, r0
    894c:	e0231001 	eor	r1, r3, r1
    8950:	e0202002 	eor	r2, r0, r2
    8954:	e0213003 	eor	r3, r1, r3
    8958:	e3550036 	cmp	r5, #54	; 0x36
    895c:	88bd8030 	pophi	{r4, r5, pc}
    8960:	e3110102 	tst	r1, #-2147483648	; 0x80000000
    8964:	e1a01601 	lsl	r1, r1, #12
    8968:	e3a0c601 	mov	ip, #1048576	; 0x100000
    896c:	e18c1621 	orr	r1, ip, r1, lsr #12
    8970:	0a000001 	beq	897c <__adddf3+0x78>
    8974:	e2700000 	rsbs	r0, r0, #0
    8978:	e2e11000 	rsc	r1, r1, #0
    897c:	e3130102 	tst	r3, #-2147483648	; 0x80000000
    8980:	e1a03603 	lsl	r3, r3, #12
    8984:	e18c3623 	orr	r3, ip, r3, lsr #12
    8988:	0a000001 	beq	8994 <__adddf3+0x90>
    898c:	e2722000 	rsbs	r2, r2, #0
    8990:	e2e33000 	rsc	r3, r3, #0
    8994:	e1340005 	teq	r4, r5
    8998:	0a000057 	beq	8afc <__adddf3+0x1f8>
    899c:	e2444001 	sub	r4, r4, #1
    89a0:	e275e020 	rsbs	lr, r5, #32
    89a4:	ba000005 	blt	89c0 <__adddf3+0xbc>
    89a8:	e1a0ce12 	lsl	ip, r2, lr
    89ac:	e0900532 	adds	r0, r0, r2, lsr r5
    89b0:	e2a11000 	adc	r1, r1, #0
    89b4:	e0900e13 	adds	r0, r0, r3, lsl lr
    89b8:	e0b11553 	adcs	r1, r1, r3, asr r5
    89bc:	ea000006 	b	89dc <__adddf3+0xd8>
    89c0:	e2455020 	sub	r5, r5, #32
    89c4:	e28ee020 	add	lr, lr, #32
    89c8:	e3520001 	cmp	r2, #1
    89cc:	e1a0ce13 	lsl	ip, r3, lr
    89d0:	238cc002 	orrcs	ip, ip, #2
    89d4:	e0900553 	adds	r0, r0, r3, asr r5
    89d8:	e0b11fc3 	adcs	r1, r1, r3, asr #31
    89dc:	e2015102 	and	r5, r1, #-2147483648	; 0x80000000
    89e0:	5a000002 	bpl	89f0 <__adddf3+0xec>
    89e4:	e27cc000 	rsbs	ip, ip, #0
    89e8:	e2f00000 	rscs	r0, r0, #0
    89ec:	e2e11000 	rsc	r1, r1, #0
    89f0:	e3510601 	cmp	r1, #1048576	; 0x100000
    89f4:	3a00000e 	bcc	8a34 <__adddf3+0x130>
    89f8:	e3510602 	cmp	r1, #2097152	; 0x200000
    89fc:	3a000006 	bcc	8a1c <__adddf3+0x118>
    8a00:	e1b010a1 	lsrs	r1, r1, #1
    8a04:	e1b00060 	rrxs	r0, r0
    8a08:	e1a0c06c 	rrx	ip, ip
    8a0c:	e2844001 	add	r4, r4, #1
    8a10:	e1a02a84 	lsl	r2, r4, #21
    8a14:	e3720501 	cmn	r2, #4194304	; 0x400000
    8a18:	2a000055 	bcs	8b74 <__adddf3+0x270>
    8a1c:	e35c0102 	cmp	ip, #-2147483648	; 0x80000000
    8a20:	01b0c0a0 	lsrseq	ip, r0, #1
    8a24:	e2b00000 	adcs	r0, r0, #0
    8a28:	e0a11a04 	adc	r1, r1, r4, lsl #20
    8a2c:	e1811005 	orr	r1, r1, r5
    8a30:	e8bd8030 	pop	{r4, r5, pc}
    8a34:	e1b0c08c 	lsls	ip, ip, #1
    8a38:	e0b00000 	adcs	r0, r0, r0
    8a3c:	e0a11001 	adc	r1, r1, r1
    8a40:	e3110601 	tst	r1, #1048576	; 0x100000
    8a44:	e2444001 	sub	r4, r4, #1
    8a48:	1afffff3 	bne	8a1c <__adddf3+0x118>
    8a4c:	e3310000 	teq	r1, #0
    8a50:	01a01000 	moveq	r1, r0
    8a54:	03a00000 	moveq	r0, #0
    8a58:	e16f3f11 	clz	r3, r1
    8a5c:	02833020 	addeq	r3, r3, #32
    8a60:	e243300b 	sub	r3, r3, #11
    8a64:	e2532020 	subs	r2, r3, #32
    8a68:	aa000007 	bge	8a8c <__adddf3+0x188>
    8a6c:	e292200c 	adds	r2, r2, #12
    8a70:	da000004 	ble	8a88 <__adddf3+0x184>
    8a74:	e282c014 	add	ip, r2, #20
    8a78:	e262200c 	rsb	r2, r2, #12
    8a7c:	e1a00c11 	lsl	r0, r1, ip
    8a80:	e1a01231 	lsr	r1, r1, r2
    8a84:	ea000004 	b	8a9c <__adddf3+0x198>
    8a88:	e2822014 	add	r2, r2, #20
    8a8c:	d262c020 	rsble	ip, r2, #32
    8a90:	e1a01211 	lsl	r1, r1, r2
    8a94:	d1811c30 	orrle	r1, r1, r0, lsr ip
    8a98:	d1a00210 	lslle	r0, r0, r2
    8a9c:	e0544003 	subs	r4, r4, r3
    8aa0:	a0811a04 	addge	r1, r1, r4, lsl #20
    8aa4:	a1811005 	orrge	r1, r1, r5
    8aa8:	a8bd8030 	popge	{r4, r5, pc}
    8aac:	e1e04004 	mvn	r4, r4
    8ab0:	e254401f 	subs	r4, r4, #31
    8ab4:	aa00000d 	bge	8af0 <__adddf3+0x1ec>
    8ab8:	e294400c 	adds	r4, r4, #12
    8abc:	ca000005 	bgt	8ad8 <__adddf3+0x1d4>
    8ac0:	e2844014 	add	r4, r4, #20
    8ac4:	e2642020 	rsb	r2, r4, #32
    8ac8:	e1a00430 	lsr	r0, r0, r4
    8acc:	e1800211 	orr	r0, r0, r1, lsl r2
    8ad0:	e1851431 	orr	r1, r5, r1, lsr r4
    8ad4:	e8bd8030 	pop	{r4, r5, pc}
    8ad8:	e264400c 	rsb	r4, r4, #12
    8adc:	e2642020 	rsb	r2, r4, #32
    8ae0:	e1a00230 	lsr	r0, r0, r2
    8ae4:	e1800411 	orr	r0, r0, r1, lsl r4
    8ae8:	e1a01005 	mov	r1, r5
    8aec:	e8bd8030 	pop	{r4, r5, pc}
    8af0:	e1a00431 	lsr	r0, r1, r4
    8af4:	e1a01005 	mov	r1, r5
    8af8:	e8bd8030 	pop	{r4, r5, pc}
    8afc:	e3340000 	teq	r4, #0
    8b00:	e2233601 	eor	r3, r3, #1048576	; 0x100000
    8b04:	02211601 	eoreq	r1, r1, #1048576	; 0x100000
    8b08:	02844001 	addeq	r4, r4, #1
    8b0c:	12455001 	subne	r5, r5, #1
    8b10:	eaffffa1 	b	899c <__adddf3+0x98>
    8b14:	e1f0cac4 	mvns	ip, r4, asr #21
    8b18:	11f0cac5 	mvnsne	ip, r5, asr #21
    8b1c:	0a000018 	beq	8b84 <__adddf3+0x280>
    8b20:	e1340005 	teq	r4, r5
    8b24:	01300002 	teqeq	r0, r2
    8b28:	0a000003 	beq	8b3c <__adddf3+0x238>
    8b2c:	e194c000 	orrs	ip, r4, r0
    8b30:	01a01003 	moveq	r1, r3
    8b34:	01a00002 	moveq	r0, r2
    8b38:	e8bd8030 	pop	{r4, r5, pc}
    8b3c:	e1310003 	teq	r1, r3
    8b40:	13a01000 	movne	r1, #0
    8b44:	13a00000 	movne	r0, #0
    8b48:	18bd8030 	popne	{r4, r5, pc}
    8b4c:	e1b0caa4 	lsrs	ip, r4, #21
    8b50:	1a000003 	bne	8b64 <__adddf3+0x260>
    8b54:	e1b00080 	lsls	r0, r0, #1
    8b58:	e0b11001 	adcs	r1, r1, r1
    8b5c:	23811102 	orrcs	r1, r1, #-2147483648	; 0x80000000
    8b60:	e8bd8030 	pop	{r4, r5, pc}
    8b64:	e2944501 	adds	r4, r4, #4194304	; 0x400000
    8b68:	32811601 	addcc	r1, r1, #1048576	; 0x100000
    8b6c:	38bd8030 	popcc	{r4, r5, pc}
    8b70:	e2015102 	and	r5, r1, #-2147483648	; 0x80000000
    8b74:	e385147f 	orr	r1, r5, #2130706432	; 0x7f000000
    8b78:	e381160f 	orr	r1, r1, #15728640	; 0xf00000
    8b7c:	e3a00000 	mov	r0, #0
    8b80:	e8bd8030 	pop	{r4, r5, pc}
    8b84:	e1f0cac4 	mvns	ip, r4, asr #21
    8b88:	11a01003 	movne	r1, r3
    8b8c:	11a00002 	movne	r0, r2
    8b90:	01f0cac5 	mvnseq	ip, r5, asr #21
    8b94:	11a03001 	movne	r3, r1
    8b98:	11a02000 	movne	r2, r0
    8b9c:	e1904601 	orrs	r4, r0, r1, lsl #12
    8ba0:	01925603 	orrseq	r5, r2, r3, lsl #12
    8ba4:	01310003 	teqeq	r1, r3
    8ba8:	13811702 	orrne	r1, r1, #524288	; 0x80000
    8bac:	e8bd8030 	pop	{r4, r5, pc}

00008bb0 <__aeabi_ui2d>:
    8bb0:	e3300000 	teq	r0, #0
    8bb4:	03a01000 	moveq	r1, #0
    8bb8:	012fff1e 	bxeq	lr
    8bbc:	e92d4030 	push	{r4, r5, lr}
    8bc0:	e3a04b01 	mov	r4, #1024	; 0x400
    8bc4:	e2844032 	add	r4, r4, #50	; 0x32
    8bc8:	e3a05000 	mov	r5, #0
    8bcc:	e3a01000 	mov	r1, #0
    8bd0:	eaffff9d 	b	8a4c <__adddf3+0x148>

00008bd4 <__aeabi_i2d>:
    8bd4:	e3300000 	teq	r0, #0
    8bd8:	03a01000 	moveq	r1, #0
    8bdc:	012fff1e 	bxeq	lr
    8be0:	e92d4030 	push	{r4, r5, lr}
    8be4:	e3a04b01 	mov	r4, #1024	; 0x400
    8be8:	e2844032 	add	r4, r4, #50	; 0x32
    8bec:	e2105102 	ands	r5, r0, #-2147483648	; 0x80000000
    8bf0:	42600000 	rsbmi	r0, r0, #0
    8bf4:	e3a01000 	mov	r1, #0
    8bf8:	eaffff93 	b	8a4c <__adddf3+0x148>

00008bfc <__aeabi_f2d>:
    8bfc:	e1b02080 	lsls	r2, r0, #1
    8c00:	e1a011c2 	asr	r1, r2, #3
    8c04:	e1a01061 	rrx	r1, r1
    8c08:	e1a00e02 	lsl	r0, r2, #28
    8c0c:	121234ff 	andsne	r3, r2, #-16777216	; 0xff000000
    8c10:	133304ff 	teqne	r3, #-16777216	; 0xff000000
    8c14:	1221130e 	eorne	r1, r1, #939524096	; 0x38000000
    8c18:	112fff1e 	bxne	lr
    8c1c:	e3320000 	teq	r2, #0
    8c20:	133304ff 	teqne	r3, #-16777216	; 0xff000000
    8c24:	012fff1e 	bxeq	lr
    8c28:	e92d4030 	push	{r4, r5, lr}
    8c2c:	e3a04d0e 	mov	r4, #896	; 0x380
    8c30:	e2015102 	and	r5, r1, #-2147483648	; 0x80000000
    8c34:	e3c11102 	bic	r1, r1, #-2147483648	; 0x80000000
    8c38:	eaffff83 	b	8a4c <__adddf3+0x148>

00008c3c <__aeabi_ul2d>:
    8c3c:	e1902001 	orrs	r2, r0, r1
    8c40:	012fff1e 	bxeq	lr
    8c44:	e92d4030 	push	{r4, r5, lr}
    8c48:	e3a05000 	mov	r5, #0
    8c4c:	ea000006 	b	8c6c <__aeabi_l2d+0x1c>

00008c50 <__aeabi_l2d>:
    8c50:	e1902001 	orrs	r2, r0, r1
    8c54:	012fff1e 	bxeq	lr
    8c58:	e92d4030 	push	{r4, r5, lr}
    8c5c:	e2115102 	ands	r5, r1, #-2147483648	; 0x80000000
    8c60:	5a000001 	bpl	8c6c <__aeabi_l2d+0x1c>
    8c64:	e2700000 	rsbs	r0, r0, #0
    8c68:	e2e11000 	rsc	r1, r1, #0
    8c6c:	e3a04b01 	mov	r4, #1024	; 0x400
    8c70:	e2844032 	add	r4, r4, #50	; 0x32
    8c74:	e1b0cb21 	lsrs	ip, r1, #22
    8c78:	0affff5c 	beq	89f0 <__adddf3+0xec>
    8c7c:	e3a02003 	mov	r2, #3
    8c80:	e1b0c1ac 	lsrs	ip, ip, #3
    8c84:	12822003 	addne	r2, r2, #3
    8c88:	e1b0c1ac 	lsrs	ip, ip, #3
    8c8c:	12822003 	addne	r2, r2, #3
    8c90:	e08221ac 	add	r2, r2, ip, lsr #3
    8c94:	e2623020 	rsb	r3, r2, #32
    8c98:	e1a0c310 	lsl	ip, r0, r3
    8c9c:	e1a00230 	lsr	r0, r0, r2
    8ca0:	e1800311 	orr	r0, r0, r1, lsl r3
    8ca4:	e1a01231 	lsr	r1, r1, r2
    8ca8:	e0844002 	add	r4, r4, r2
    8cac:	eaffff4f 	b	89f0 <__adddf3+0xec>

00008cb0 <__aeabi_dmul>:
    8cb0:	e92d4070 	push	{r4, r5, r6, lr}
    8cb4:	e3a0c0ff 	mov	ip, #255	; 0xff
    8cb8:	e38ccc07 	orr	ip, ip, #1792	; 0x700
    8cbc:	e01c4a21 	ands	r4, ip, r1, lsr #20
    8cc0:	101c5a23 	andsne	r5, ip, r3, lsr #20
    8cc4:	1134000c 	teqne	r4, ip
    8cc8:	1135000c 	teqne	r5, ip
    8ccc:	0b00006f 	bleq	8e90 <__aeabi_dmul+0x1e0>
    8cd0:	e0844005 	add	r4, r4, r5
    8cd4:	e0216003 	eor	r6, r1, r3
    8cd8:	e1c11a8c 	bic	r1, r1, ip, lsl #21
    8cdc:	e1c33a8c 	bic	r3, r3, ip, lsl #21
    8ce0:	e1905601 	orrs	r5, r0, r1, lsl #12
    8ce4:	11925603 	orrsne	r5, r2, r3, lsl #12
    8ce8:	e3811601 	orr	r1, r1, #1048576	; 0x100000
    8cec:	e3833601 	orr	r3, r3, #1048576	; 0x100000
    8cf0:	0a00001c 	beq	8d68 <__aeabi_dmul+0xb8>
    8cf4:	e08ec290 	umull	ip, lr, r0, r2
    8cf8:	e3a05000 	mov	r5, #0
    8cfc:	e0a5e291 	umlal	lr, r5, r1, r2
    8d00:	e2062102 	and	r2, r6, #-2147483648	; 0x80000000
    8d04:	e0a5e390 	umlal	lr, r5, r0, r3
    8d08:	e3a06000 	mov	r6, #0
    8d0c:	e0a65391 	umlal	r5, r6, r1, r3
    8d10:	e33c0000 	teq	ip, #0
    8d14:	138ee001 	orrne	lr, lr, #1
    8d18:	e24440ff 	sub	r4, r4, #255	; 0xff
    8d1c:	e3560c02 	cmp	r6, #512	; 0x200
    8d20:	e2c44c03 	sbc	r4, r4, #768	; 0x300
    8d24:	2a000002 	bcs	8d34 <__aeabi_dmul+0x84>
    8d28:	e1b0e08e 	lsls	lr, lr, #1
    8d2c:	e0b55005 	adcs	r5, r5, r5
    8d30:	e0a66006 	adc	r6, r6, r6
    8d34:	e1821586 	orr	r1, r2, r6, lsl #11
    8d38:	e1811aa5 	orr	r1, r1, r5, lsr #21
    8d3c:	e1a00585 	lsl	r0, r5, #11
    8d40:	e1800aae 	orr	r0, r0, lr, lsr #21
    8d44:	e1a0e58e 	lsl	lr, lr, #11
    8d48:	e254c0fd 	subs	ip, r4, #253	; 0xfd
    8d4c:	835c0c07 	cmphi	ip, #1792	; 0x700
    8d50:	8a00000f 	bhi	8d94 <__aeabi_dmul+0xe4>
    8d54:	e35e0102 	cmp	lr, #-2147483648	; 0x80000000
    8d58:	01b0e0a0 	lsrseq	lr, r0, #1
    8d5c:	e2b00000 	adcs	r0, r0, #0
    8d60:	e0a11a04 	adc	r1, r1, r4, lsl #20
    8d64:	e8bd8070 	pop	{r4, r5, r6, pc}
    8d68:	e2066102 	and	r6, r6, #-2147483648	; 0x80000000
    8d6c:	e1861001 	orr	r1, r6, r1
    8d70:	e1800002 	orr	r0, r0, r2
    8d74:	e0211003 	eor	r1, r1, r3
    8d78:	e05440ac 	subs	r4, r4, ip, lsr #1
    8d7c:	c074500c 	rsbsgt	r5, r4, ip
    8d80:	c1811a04 	orrgt	r1, r1, r4, lsl #20
    8d84:	c8bd8070 	popgt	{r4, r5, r6, pc}
    8d88:	e3811601 	orr	r1, r1, #1048576	; 0x100000
    8d8c:	e3a0e000 	mov	lr, #0
    8d90:	e2544001 	subs	r4, r4, #1
    8d94:	ca000058 	bgt	8efc <__aeabi_dmul+0x24c>
    8d98:	e3740036 	cmn	r4, #54	; 0x36
    8d9c:	d3a00000 	movle	r0, #0
    8da0:	d2011102 	andle	r1, r1, #-2147483648	; 0x80000000
    8da4:	d8bd8070 	pople	{r4, r5, r6, pc}
    8da8:	e2644000 	rsb	r4, r4, #0
    8dac:	e2544020 	subs	r4, r4, #32
    8db0:	aa000018 	bge	8e18 <__aeabi_dmul+0x168>
    8db4:	e294400c 	adds	r4, r4, #12
    8db8:	ca00000b 	bgt	8dec <__aeabi_dmul+0x13c>
    8dbc:	e2844014 	add	r4, r4, #20
    8dc0:	e2645020 	rsb	r5, r4, #32
    8dc4:	e1a03510 	lsl	r3, r0, r5
    8dc8:	e1a00430 	lsr	r0, r0, r4
    8dcc:	e1800511 	orr	r0, r0, r1, lsl r5
    8dd0:	e2012102 	and	r2, r1, #-2147483648	; 0x80000000
    8dd4:	e3c11102 	bic	r1, r1, #-2147483648	; 0x80000000
    8dd8:	e0900fa3 	adds	r0, r0, r3, lsr #31
    8ddc:	e0a21431 	adc	r1, r2, r1, lsr r4
    8de0:	e19ee083 	orrs	lr, lr, r3, lsl #1
    8de4:	01c00fa3 	biceq	r0, r0, r3, lsr #31
    8de8:	e8bd8070 	pop	{r4, r5, r6, pc}
    8dec:	e264400c 	rsb	r4, r4, #12
    8df0:	e2645020 	rsb	r5, r4, #32
    8df4:	e1a03410 	lsl	r3, r0, r4
    8df8:	e1a00530 	lsr	r0, r0, r5
    8dfc:	e1800411 	orr	r0, r0, r1, lsl r4
    8e00:	e2011102 	and	r1, r1, #-2147483648	; 0x80000000
    8e04:	e0900fa3 	adds	r0, r0, r3, lsr #31
    8e08:	e2a11000 	adc	r1, r1, #0
    8e0c:	e19ee083 	orrs	lr, lr, r3, lsl #1
    8e10:	01c00fa3 	biceq	r0, r0, r3, lsr #31
    8e14:	e8bd8070 	pop	{r4, r5, r6, pc}
    8e18:	e2645020 	rsb	r5, r4, #32
    8e1c:	e18ee510 	orr	lr, lr, r0, lsl r5
    8e20:	e1a03430 	lsr	r3, r0, r4
    8e24:	e1833511 	orr	r3, r3, r1, lsl r5
    8e28:	e1a00431 	lsr	r0, r1, r4
    8e2c:	e2011102 	and	r1, r1, #-2147483648	; 0x80000000
    8e30:	e1c00431 	bic	r0, r0, r1, lsr r4
    8e34:	e0800fa3 	add	r0, r0, r3, lsr #31
    8e38:	e19ee083 	orrs	lr, lr, r3, lsl #1
    8e3c:	01c00fa3 	biceq	r0, r0, r3, lsr #31
    8e40:	e8bd8070 	pop	{r4, r5, r6, pc}
    8e44:	e3340000 	teq	r4, #0
    8e48:	1a000008 	bne	8e70 <__aeabi_dmul+0x1c0>
    8e4c:	e2016102 	and	r6, r1, #-2147483648	; 0x80000000
    8e50:	e1b00080 	lsls	r0, r0, #1
    8e54:	e0a11001 	adc	r1, r1, r1
    8e58:	e3110601 	tst	r1, #1048576	; 0x100000
    8e5c:	02444001 	subeq	r4, r4, #1
    8e60:	0afffffa 	beq	8e50 <__aeabi_dmul+0x1a0>
    8e64:	e1811006 	orr	r1, r1, r6
    8e68:	e3350000 	teq	r5, #0
    8e6c:	112fff1e 	bxne	lr
    8e70:	e2036102 	and	r6, r3, #-2147483648	; 0x80000000
    8e74:	e1b02082 	lsls	r2, r2, #1
    8e78:	e0a33003 	adc	r3, r3, r3
    8e7c:	e3130601 	tst	r3, #1048576	; 0x100000
    8e80:	02455001 	subeq	r5, r5, #1
    8e84:	0afffffa 	beq	8e74 <__aeabi_dmul+0x1c4>
    8e88:	e1833006 	orr	r3, r3, r6
    8e8c:	e12fff1e 	bx	lr
    8e90:	e134000c 	teq	r4, ip
    8e94:	e00c5a23 	and	r5, ip, r3, lsr #20
    8e98:	1135000c 	teqne	r5, ip
    8e9c:	0a000006 	beq	8ebc <__aeabi_dmul+0x20c>
    8ea0:	e1906081 	orrs	r6, r0, r1, lsl #1
    8ea4:	11926083 	orrsne	r6, r2, r3, lsl #1
    8ea8:	1affffe5 	bne	8e44 <__aeabi_dmul+0x194>
    8eac:	e0211003 	eor	r1, r1, r3
    8eb0:	e2011102 	and	r1, r1, #-2147483648	; 0x80000000
    8eb4:	e3a00000 	mov	r0, #0
    8eb8:	e8bd8070 	pop	{r4, r5, r6, pc}
    8ebc:	e1906081 	orrs	r6, r0, r1, lsl #1
    8ec0:	01a00002 	moveq	r0, r2
    8ec4:	01a01003 	moveq	r1, r3
    8ec8:	11926083 	orrsne	r6, r2, r3, lsl #1
    8ecc:	0a00000f 	beq	8f10 <__aeabi_dmul+0x260>
    8ed0:	e134000c 	teq	r4, ip
    8ed4:	1a000001 	bne	8ee0 <__aeabi_dmul+0x230>
    8ed8:	e1906601 	orrs	r6, r0, r1, lsl #12
    8edc:	1a00000b 	bne	8f10 <__aeabi_dmul+0x260>
    8ee0:	e135000c 	teq	r5, ip
    8ee4:	1a000003 	bne	8ef8 <__aeabi_dmul+0x248>
    8ee8:	e1926603 	orrs	r6, r2, r3, lsl #12
    8eec:	11a00002 	movne	r0, r2
    8ef0:	11a01003 	movne	r1, r3
    8ef4:	1a000005 	bne	8f10 <__aeabi_dmul+0x260>
    8ef8:	e0211003 	eor	r1, r1, r3
    8efc:	e2011102 	and	r1, r1, #-2147483648	; 0x80000000
    8f00:	e381147f 	orr	r1, r1, #2130706432	; 0x7f000000
    8f04:	e381160f 	orr	r1, r1, #15728640	; 0xf00000
    8f08:	e3a00000 	mov	r0, #0
    8f0c:	e8bd8070 	pop	{r4, r5, r6, pc}
    8f10:	e381147f 	orr	r1, r1, #2130706432	; 0x7f000000
    8f14:	e381173e 	orr	r1, r1, #16252928	; 0xf80000
    8f18:	e8bd8070 	pop	{r4, r5, r6, pc}

00008f1c <__aeabi_ddiv>:
    8f1c:	e92d4070 	push	{r4, r5, r6, lr}
    8f20:	e3a0c0ff 	mov	ip, #255	; 0xff
    8f24:	e38ccc07 	orr	ip, ip, #1792	; 0x700
    8f28:	e01c4a21 	ands	r4, ip, r1, lsr #20
    8f2c:	101c5a23 	andsne	r5, ip, r3, lsr #20
    8f30:	1134000c 	teqne	r4, ip
    8f34:	1135000c 	teqne	r5, ip
    8f38:	0b00005c 	bleq	90b0 <__aeabi_ddiv+0x194>
    8f3c:	e0444005 	sub	r4, r4, r5
    8f40:	e021e003 	eor	lr, r1, r3
    8f44:	e1925603 	orrs	r5, r2, r3, lsl #12
    8f48:	e1a01601 	lsl	r1, r1, #12
    8f4c:	0a00004b 	beq	9080 <__aeabi_ddiv+0x164>
    8f50:	e1a03603 	lsl	r3, r3, #12
    8f54:	e3a05201 	mov	r5, #268435456	; 0x10000000
    8f58:	e1853223 	orr	r3, r5, r3, lsr #4
    8f5c:	e1833c22 	orr	r3, r3, r2, lsr #24
    8f60:	e1a02402 	lsl	r2, r2, #8
    8f64:	e1855221 	orr	r5, r5, r1, lsr #4
    8f68:	e1855c20 	orr	r5, r5, r0, lsr #24
    8f6c:	e1a06400 	lsl	r6, r0, #8
    8f70:	e20e1102 	and	r1, lr, #-2147483648	; 0x80000000
    8f74:	e1550003 	cmp	r5, r3
    8f78:	01560002 	cmpeq	r6, r2
    8f7c:	e2a440fd 	adc	r4, r4, #253	; 0xfd
    8f80:	e2844c03 	add	r4, r4, #768	; 0x300
    8f84:	2a000001 	bcs	8f90 <__aeabi_ddiv+0x74>
    8f88:	e1b030a3 	lsrs	r3, r3, #1
    8f8c:	e1a02062 	rrx	r2, r2
    8f90:	e0566002 	subs	r6, r6, r2
    8f94:	e0c55003 	sbc	r5, r5, r3
    8f98:	e1b030a3 	lsrs	r3, r3, #1
    8f9c:	e1a02062 	rrx	r2, r2
    8fa0:	e3a00601 	mov	r0, #1048576	; 0x100000
    8fa4:	e3a0c702 	mov	ip, #524288	; 0x80000
    8fa8:	e056e002 	subs	lr, r6, r2
    8fac:	e0d5e003 	sbcs	lr, r5, r3
    8fb0:	20466002 	subcs	r6, r6, r2
    8fb4:	21a0500e 	movcs	r5, lr
    8fb8:	2180000c 	orrcs	r0, r0, ip
    8fbc:	e1b030a3 	lsrs	r3, r3, #1
    8fc0:	e1a02062 	rrx	r2, r2
    8fc4:	e056e002 	subs	lr, r6, r2
    8fc8:	e0d5e003 	sbcs	lr, r5, r3
    8fcc:	20466002 	subcs	r6, r6, r2
    8fd0:	21a0500e 	movcs	r5, lr
    8fd4:	218000ac 	orrcs	r0, r0, ip, lsr #1
    8fd8:	e1b030a3 	lsrs	r3, r3, #1
    8fdc:	e1a02062 	rrx	r2, r2
    8fe0:	e056e002 	subs	lr, r6, r2
    8fe4:	e0d5e003 	sbcs	lr, r5, r3
    8fe8:	20466002 	subcs	r6, r6, r2
    8fec:	21a0500e 	movcs	r5, lr
    8ff0:	2180012c 	orrcs	r0, r0, ip, lsr #2
    8ff4:	e1b030a3 	lsrs	r3, r3, #1
    8ff8:	e1a02062 	rrx	r2, r2
    8ffc:	e056e002 	subs	lr, r6, r2
    9000:	e0d5e003 	sbcs	lr, r5, r3
    9004:	20466002 	subcs	r6, r6, r2
    9008:	21a0500e 	movcs	r5, lr
    900c:	218001ac 	orrcs	r0, r0, ip, lsr #3
    9010:	e195e006 	orrs	lr, r5, r6
    9014:	0a00000d 	beq	9050 <__aeabi_ddiv+0x134>
    9018:	e1a05205 	lsl	r5, r5, #4
    901c:	e1855e26 	orr	r5, r5, r6, lsr #28
    9020:	e1a06206 	lsl	r6, r6, #4
    9024:	e1a03183 	lsl	r3, r3, #3
    9028:	e1833ea2 	orr	r3, r3, r2, lsr #29
    902c:	e1a02182 	lsl	r2, r2, #3
    9030:	e1b0c22c 	lsrs	ip, ip, #4
    9034:	1affffdb 	bne	8fa8 <__aeabi_ddiv+0x8c>
    9038:	e3110601 	tst	r1, #1048576	; 0x100000
    903c:	1a000006 	bne	905c <__aeabi_ddiv+0x140>
    9040:	e1811000 	orr	r1, r1, r0
    9044:	e3a00000 	mov	r0, #0
    9048:	e3a0c102 	mov	ip, #-2147483648	; 0x80000000
    904c:	eaffffd5 	b	8fa8 <__aeabi_ddiv+0x8c>
    9050:	e3110601 	tst	r1, #1048576	; 0x100000
    9054:	01811000 	orreq	r1, r1, r0
    9058:	03a00000 	moveq	r0, #0
    905c:	e254c0fd 	subs	ip, r4, #253	; 0xfd
    9060:	835c0c07 	cmphi	ip, #1792	; 0x700
    9064:	8affff4a 	bhi	8d94 <__aeabi_dmul+0xe4>
    9068:	e055c003 	subs	ip, r5, r3
    906c:	0056c002 	subseq	ip, r6, r2
    9070:	01b0c0a0 	lsrseq	ip, r0, #1
    9074:	e2b00000 	adcs	r0, r0, #0
    9078:	e0a11a04 	adc	r1, r1, r4, lsl #20
    907c:	e8bd8070 	pop	{r4, r5, r6, pc}
    9080:	e20ee102 	and	lr, lr, #-2147483648	; 0x80000000
    9084:	e18e1621 	orr	r1, lr, r1, lsr #12
    9088:	e09440ac 	adds	r4, r4, ip, lsr #1
    908c:	c074500c 	rsbsgt	r5, r4, ip
    9090:	c1811a04 	orrgt	r1, r1, r4, lsl #20
    9094:	c8bd8070 	popgt	{r4, r5, r6, pc}
    9098:	e3811601 	orr	r1, r1, #1048576	; 0x100000
    909c:	e3a0e000 	mov	lr, #0
    90a0:	e2544001 	subs	r4, r4, #1
    90a4:	eaffff3a 	b	8d94 <__aeabi_dmul+0xe4>
    90a8:	e185e006 	orr	lr, r5, r6
    90ac:	eaffff38 	b	8d94 <__aeabi_dmul+0xe4>
    90b0:	e00c5a23 	and	r5, ip, r3, lsr #20
    90b4:	e134000c 	teq	r4, ip
    90b8:	0135000c 	teqeq	r5, ip
    90bc:	0affff93 	beq	8f10 <__aeabi_dmul+0x260>
    90c0:	e134000c 	teq	r4, ip
    90c4:	1a000006 	bne	90e4 <__aeabi_ddiv+0x1c8>
    90c8:	e1904601 	orrs	r4, r0, r1, lsl #12
    90cc:	1affff8f 	bne	8f10 <__aeabi_dmul+0x260>
    90d0:	e135000c 	teq	r5, ip
    90d4:	1affff87 	bne	8ef8 <__aeabi_dmul+0x248>
    90d8:	e1a00002 	mov	r0, r2
    90dc:	e1a01003 	mov	r1, r3
    90e0:	eaffff8a 	b	8f10 <__aeabi_dmul+0x260>
    90e4:	e135000c 	teq	r5, ip
    90e8:	1a000004 	bne	9100 <__aeabi_ddiv+0x1e4>
    90ec:	e1925603 	orrs	r5, r2, r3, lsl #12
    90f0:	0affff6d 	beq	8eac <__aeabi_dmul+0x1fc>
    90f4:	e1a00002 	mov	r0, r2
    90f8:	e1a01003 	mov	r1, r3
    90fc:	eaffff83 	b	8f10 <__aeabi_dmul+0x260>
    9100:	e1906081 	orrs	r6, r0, r1, lsl #1
    9104:	11926083 	orrsne	r6, r2, r3, lsl #1
    9108:	1affff4d 	bne	8e44 <__aeabi_dmul+0x194>
    910c:	e1904081 	orrs	r4, r0, r1, lsl #1
    9110:	1affff78 	bne	8ef8 <__aeabi_dmul+0x248>
    9114:	e1925083 	orrs	r5, r2, r3, lsl #1
    9118:	1affff63 	bne	8eac <__aeabi_dmul+0x1fc>
    911c:	eaffff7b 	b	8f10 <__aeabi_dmul+0x260>
